target datalayout = "e-m:e-p270:32:32-p271:32:32-p272:64:64-i64:64-i128:128-f80:128-n8:16:32:64-S128"
target triple = "x86_64-pc-linux-gnu"

%struct.ARKodeSPRKStepMemRec = type { ptr, i32, ptr, ptr, ptr, ptr, i64, i64, i32 }

@__func__.SPRKStepSetMethodName = private unnamed_addr constant [22 x i8] c"SPRKStepSetMethodName\00", align 1

; Function Attrs: nounwind uwtable
define i32 @SPRKStepSetMethodName(ptr noundef %0, ptr noundef %1) #0 {
  %3 = alloca i32, align 4
  %4 = alloca ptr, align 8
  %5 = alloca ptr, align 8
  %6 = alloca ptr, align 8
  %7 = alloca ptr, align 8
  %8 = alloca i32, align 4
  %9 = alloca i32, align 4
  store ptr %0, ptr %4, align 8, !tbaa !3
  store ptr %1, ptr %5, align 8, !tbaa !30
  call void @llvm.lifetime.start.p0(i64 8, ptr %6) #4
  store ptr null, ptr %6, align 8, !tbaa !9
  call void @llvm.lifetime.start.p0(i64 8, ptr %7) #4
  store ptr null, ptr %7, align 8, !tbaa !11
  call void @llvm.lifetime.start.p0(i64 4, ptr %8) #4
  store i32 0, ptr %8, align 4, !tbaa !7
  %10 = load ptr, ptr %4, align 8, !tbaa !3
  %11 = call i32 @sprkStep_AccessARKODEStepMem(ptr noundef %10, ptr noundef @__func__.SPRKStepSetMethodName, ptr noundef %6, ptr noundef %7)
  store i32 %11, ptr %8, align 4, !tbaa !7
  %12 = load i32, ptr %8, align 4, !tbaa !7
  %13 = icmp ne i32 %12, 0
  br i1 %13, label %14, label %16

14:                                               ; preds = %2
  %15 = load i32, ptr %8, align 4, !tbaa !7
  store i32 %15, ptr %3, align 4
  store i32 1, ptr %9, align 4
  br label %37

16:                                               ; preds = %2
  %17 = load ptr, ptr %7, align 8, !tbaa !11
  %18 = getelementptr inbounds nuw %struct.ARKodeSPRKStepMemRec, ptr %17, i32 0, i32 0
  %19 = load ptr, ptr %18, align 8, !tbaa !29
  %20 = icmp ne ptr %19, null
  br i1 %20, label %21, label %27

21:                                               ; preds = %16
  %22 = load ptr, ptr %7, align 8, !tbaa !11
  %23 = getelementptr inbounds nuw %struct.ARKodeSPRKStepMemRec, ptr %22, i32 0, i32 0
  %24 = load ptr, ptr %23, align 8, !tbaa !29
  call void @ARKodeSPRKTable_Free(ptr noundef %24)
  %25 = load ptr, ptr %7, align 8, !tbaa !11
  %26 = getelementptr inbounds nuw %struct.ARKodeSPRKStepMemRec, ptr %25, i32 0, i32 0
  store ptr null, ptr %26, align 8, !tbaa !29
  br label %27

27:                                               ; preds = %21, %16
  %28 = load ptr, ptr %5, align 8, !tbaa !30
  %29 = call ptr @ARKodeSPRKTable_LoadByName(ptr noundef %28)
  %30 = load ptr, ptr %7, align 8, !tbaa !11
  %31 = getelementptr inbounds nuw %struct.ARKodeSPRKStepMemRec, ptr %30, i32 0, i32 0
  store ptr %29, ptr %31, align 8, !tbaa !29
  %32 = load ptr, ptr %7, align 8, !tbaa !11
  %33 = getelementptr inbounds nuw %struct.ARKodeSPRKStepMemRec, ptr %32, i32 0, i32 0
  %34 = load ptr, ptr %33, align 8, !tbaa !29
  %35 = icmp ne ptr %34, null
  %36 = select i1 %35, i32 0, i32 -22
  store i32 %36, ptr %3, align 4
  store i32 1, ptr %9, align 4
  br label %37

37:                                               ; preds = %27, %14
  call void @llvm.lifetime.end.p0(i64 4, ptr %8) #4
  call void @llvm.lifetime.end.p0(i64 8, ptr %7) #4
  call void @llvm.lifetime.end.p0(i64 8, ptr %6) #4
  %38 = load i32, ptr %3, align 4
  ret i32 %38
}