; Function Attrs: nounwind uwtable
define i32 @SPRKStepSetMethodName(ptr noundef %0, ptr noundef %1) local_unnamed_addr #0 {
  %3 = alloca ptr, align 8
  %4 = alloca ptr, align 8
  call void @llvm.lifetime.start.p0(i64 8, ptr nonnull %3) #5
  store ptr null, ptr %3, align 8, !tbaa !3
  call void @llvm.lifetime.start.p0(i64 8, ptr nonnull %4) #5
  store ptr null, ptr %4, align 8, !tbaa !8
  %5 = call i32 @sprkStep_AccessARKODEStepMem(ptr noundef %0, ptr noundef nonnull @__func__.SPRKStepSetMethodName, ptr noundef nonnull %3, ptr noundef nonnull %4) #5
  %.not = icmp eq i32 %5, 0
  br i1 %.not, label %6, label %15

6:                                                ; preds = %2
  %7 = load ptr, ptr %4, align 8, !tbaa !8
  %8 = load ptr, ptr %7, align 8, !tbaa !26
  %.not6 = icmp eq ptr %8, null
  br i1 %.not6, label %11, label %9

9:                                                ; preds = %6
  call void @ARKodeSPRKTable_Free(ptr noundef nonnull %8) #5
  %10 = load ptr, ptr %4, align 8, !tbaa !8
  store ptr null, ptr %10, align 8, !tbaa !26
  br label %11

11:                                               ; preds = %9, %6
  %12 = call ptr @ARKodeSPRKTable_LoadByName(ptr noundef %1) #5
  %13 = load ptr, ptr %4, align 8, !tbaa !8
  store ptr %12, ptr %13, align 8, !tbaa !26
  %.not7 = icmp eq ptr %12, null
  %14 = select i1 %.not7, i32 -22, i32 0
  br label %15

15:                                               ; preds = %2, %11
  %.0 = phi i32 [ %14, %11 ], [ %5, %2 ]
  call void @llvm.lifetime.end.p0(i64 8, ptr nonnull %4) #5
  call void @llvm.lifetime.end.p0(i64 8, ptr nonnull %3) #5
  ret i32 %.0
}